; Function Attrs: nounwind sspstrong uwtable
define dso_local zeroext i1 @migration_in_postcopy_after_devices(ptr noundef readonly captures(none) %s) local_unnamed_addr #0 {
entry:
  %0 = load ptr, ptr @current_migration, align 8
  %tobool.not.i.i = icmp eq ptr %0, null
  br i1 %tobool.not.i.i, label %if.else.i.i, label %migration_in_postcopy.exit

if.else.i.i:                                      ; preds = %entry
  tail call void @__assert_fail(ptr noundef nonnull @.str.5, ptr noundef nonnull @.str.2, i32 noundef 246, ptr noundef nonnull @__PRETTY_FUNCTION__.migrate_get_current) #20
  unreachable

migration_in_postcopy.exit:                       ; preds = %entry
  %state.i = getelementptr inbounds nuw i8, ptr %0, i64 776
  %1 = load i32, ptr %state.i, align 8
  %.off.i = add i32 %1, -5
  %switch.i = icmp ult i32 %.off.i, 3
  br i1 %switch.i, label %land.rhs, label %land.end

land.rhs:                                         ; preds = %migration_in_postcopy.exit
  %postcopy_after_devices = getelementptr inbounds nuw i8, ptr %s, i64 1117
  %2 = load i8, ptr %postcopy_after_devices, align 1
  %tobool = trunc i8 %2 to i1
  br label %land.end

land.end:                                         ; preds = %land.rhs, %migration_in_postcopy.exit
  %3 = phi i1 [ false, %migration_in_postcopy.exit ], [ %tobool, %land.rhs ]
  ret i1 %3
}